; Function Attrs: nofree norecurse nosync nounwind memory(readwrite, inaccessiblemem: none) uwtable
define hidden void @UshortGrayToByteGrayScaleConvert(ptr noundef %0, ptr noundef %1, i32 noundef %2, i32 noundef %3, i32 noundef %4, i32 noundef %5, i32 noundef %6, i32 noundef %7, i32 noundef %8, ptr nocapture noundef readonly %9, ptr nocapture noundef readonly %10, ptr nocapture readnone %11, ptr nocapture readnone %12) #1 {
  %14 = getelementptr inbounds i8, ptr %9, i64 32
  %15 = load i32, ptr %14, align 8
  %16 = getelementptr inbounds i8, ptr %10, i64 32
  %17 = load i32, ptr %16, align 8
  %18 = sub i32 %17, %2
  %19 = sext i32 %18 to i64
  %20 = ptrtoint ptr %0 to i64
  %21 = sext i32 %15 to i64
  br label %22

22:                                               ; preds = %40, %13
  %.028 = phi ptr [ %1, %13 ], [ %42, %40 ]
  %.025 = phi i32 [ %5, %13 ], [ %43, %40 ]
  %.0 = phi i32 [ %3, %13 ], [ %44, %40 ]
  %23 = ashr i32 %.025, %8
  %24 = sext i32 %23 to i64
  %25 = mul nsw i64 %24, %21
  %26 = add nsw i64 %25, %20
  %27 = inttoptr i64 %26 to ptr
  br label %28

28:                                               ; preds = %28, %22
  %.1 = phi ptr [ %.028, %22 ], [ %37, %28 ]
  %.027 = phi i32 [ %2, %22 ], [ %39, %28 ]
  %.026 = phi i32 [ %4, %22 ], [ %38, %28 ]
  %29 = ashr i32 %.026, %8
  %30 = sext i32 %29 to i64
  %31 = getelementptr inbounds i16, ptr %27, i64 %30
  %32 = load i16, ptr %31, align 2
  %33 = lshr i16 %32, 8
  %34 = trunc nuw i16 %33 to i8
  store i8 %34, ptr %.1, align 1
  %35 = ptrtoint ptr %.1 to i64
  %36 = add nsw i64 %35, 1
  %37 = inttoptr i64 %36 to ptr
  %38 = add nsw i32 %.026, %6
  %39 = add i32 %.027, -1
  %.not = icmp eq i32 %39, 0
  br i1 %.not, label %40, label %28, !llvm.loop !28

40:                                               ; preds = %28
  %41 = add nsw i64 %36, %19
  %42 = inttoptr i64 %41 to ptr
  %43 = add nsw i32 %.025, %7
  %44 = add i32 %.0, -1
  %.not30 = icmp eq i32 %44, 0
  br i1 %.not30, label %45, label %22, !llvm.loop !29

45:                                               ; preds = %40
  ret void
}